target datalayout = "e-m:e-p270:32:32-p271:32:32-p272:64:64-i64:64-i128:128-f80:128-n8:16:32:64-S128"
target triple = "x86_64-pc-linux-gnu"

%struct.spgBulkDeleteState = type { ptr, ptr, ptr, ptr, %struct.SpGistState, ptr, i32, i32 }
%struct.SpGistState = type { ptr, %struct.spgConfigOut, %struct.SpGistTypeDesc, %struct.SpGistTypeDesc, %struct.SpGistTypeDesc, %struct.SpGistTypeDesc, ptr, ptr, i32, i8 }
%struct.spgConfigOut = type { i32, i32, i32, i8, i8 }
%struct.SpGistTypeDesc = type { i32, i16, i8, i8, i8 }
%struct.IndexVacuumInfo = type { ptr, ptr, i8, i8, i8, i32, double, ptr }
%struct.IndexBulkDeleteResult = type { i32, i8, double, double, i32, i32, i32 }

; Function Attrs: nounwind uwtable
define dso_local ptr @spgvacuumcleanup(ptr noundef %0, ptr noundef %1) #0 {
  %3 = alloca ptr, align 8
  %4 = alloca ptr, align 8
  %5 = alloca ptr, align 8
  %6 = alloca %struct.spgBulkDeleteState, align 8
  %7 = alloca i32, align 4
  store ptr %0, ptr %4, align 8
  store ptr %1, ptr %5, align 8
  call void @llvm.lifetime.start.p0(i64 144, ptr %6) #7
  %8 = load ptr, ptr %4, align 8
  %9 = getelementptr inbounds nuw %struct.IndexVacuumInfo, ptr %8, i32 0, i32 2
  %10 = load i8, ptr %9, align 8, !range !4, !noundef !5
  %11 = trunc i8 %10 to i1
  br i1 %11, label %12, label %14

12:                                               ; preds = %2
  %13 = load ptr, ptr %5, align 8
  store ptr %13, ptr %3, align 8
  store i32 1, ptr %7, align 4
  br label %47

14:                                               ; preds = %2
  %15 = load ptr, ptr %5, align 8
  %16 = icmp eq ptr %15, null
  br i1 %16, label %17, label %25

17:                                               ; preds = %14
  %18 = call ptr @palloc0(i64 noundef 40)
  store ptr %18, ptr %5, align 8
  %19 = load ptr, ptr %4, align 8
  %20 = getelementptr inbounds nuw %struct.spgBulkDeleteState, ptr %6, i32 0, i32 0
  store ptr %19, ptr %20, align 8
  %21 = load ptr, ptr %5, align 8
  %22 = getelementptr inbounds nuw %struct.spgBulkDeleteState, ptr %6, i32 0, i32 1
  store ptr %21, ptr %22, align 8
  %23 = getelementptr inbounds nuw %struct.spgBulkDeleteState, ptr %6, i32 0, i32 2
  store ptr @dummy_callback, ptr %23, align 8
  %24 = getelementptr inbounds nuw %struct.spgBulkDeleteState, ptr %6, i32 0, i32 3
  store ptr null, ptr %24, align 8
  call void @spgvacuumscan(ptr noundef %6)
  br label %25

25:                                               ; preds = %17, %14
  %26 = load ptr, ptr %4, align 8
  %27 = getelementptr inbounds nuw %struct.IndexVacuumInfo, ptr %26, i32 0, i32 4
  %28 = load i8, ptr %27, align 2, !range !4, !noundef !5
  %29 = trunc i8 %28 to i1
  br i1 %29, label %45, label %30

30:                                               ; preds = %25
  %31 = load ptr, ptr %5, align 8
  %32 = getelementptr inbounds nuw %struct.IndexBulkDeleteResult, ptr %31, i32 0, i32 2
  %33 = load double, ptr %32, align 8
  %34 = load ptr, ptr %4, align 8
  %35 = getelementptr inbounds nuw %struct.IndexVacuumInfo, ptr %34, i32 0, i32 6
  %36 = load double, ptr %35, align 8
  %37 = fcmp ogt double %33, %36
  br i1 %37, label %38, label %44

38:                                               ; preds = %30
  %39 = load ptr, ptr %4, align 8
  %40 = getelementptr inbounds nuw %struct.IndexVacuumInfo, ptr %39, i32 0, i32 6
  %41 = load double, ptr %40, align 8
  %42 = load ptr, ptr %5, align 8
  %43 = getelementptr inbounds nuw %struct.IndexBulkDeleteResult, ptr %42, i32 0, i32 2
  store double %41, ptr %43, align 8
  br label %44

44:                                               ; preds = %38, %30
  br label %45

45:                                               ; preds = %44, %25
  %46 = load ptr, ptr %5, align 8
  store ptr %46, ptr %3, align 8
  store i32 1, ptr %7, align 4
  br label %47

47:                                               ; preds = %45, %12
  call void @llvm.lifetime.end.p0(i64 144, ptr %6) #7
  %48 = load ptr, ptr %3, align 8
  ret ptr %48
}