; Function Attrs: nounwind uwtable
define dso_local ptr @spgvacuumcleanup(ptr noundef %0, ptr noundef captures(address_is_null, ret: address, provenance) %1) local_unnamed_addr #0 {
  %3 = alloca %struct.spgBulkDeleteState, align 8
  call void @llvm.lifetime.start.p0(i64 144, ptr nonnull %3) #8
  %4 = getelementptr inbounds nuw i8, ptr %0, i64 16
  %5 = load i8, ptr %4, align 8, !range !4, !noundef !5
  %6 = trunc nuw i8 %5 to i1
  br i1 %6, label %25, label %7

7:                                                ; preds = %2
  %8 = icmp eq ptr %1, null
  br i1 %8, label %9, label %14

9:                                                ; preds = %7
  %10 = tail call ptr @palloc0(i64 noundef 40) #8
  store ptr %0, ptr %3, align 8
  %11 = getelementptr inbounds nuw i8, ptr %3, i64 8
  store ptr %10, ptr %11, align 8
  %12 = getelementptr inbounds nuw i8, ptr %3, i64 16
  store ptr @dummy_callback, ptr %12, align 8
  %13 = getelementptr inbounds nuw i8, ptr %3, i64 24
  store ptr null, ptr %13, align 8
  call fastcc void @spgvacuumscan(ptr noundef %3)
  br label %14

14:                                               ; preds = %9, %7
  %.0 = phi ptr [ %10, %9 ], [ %1, %7 ]
  %15 = getelementptr inbounds nuw i8, ptr %0, i64 18
  %16 = load i8, ptr %15, align 2, !range !4, !noundef !5
  %17 = trunc nuw i8 %16 to i1
  br i1 %17, label %25, label %18

18:                                               ; preds = %14
  %19 = getelementptr inbounds nuw i8, ptr %.0, i64 8
  %20 = load double, ptr %19, align 8
  %21 = getelementptr inbounds nuw i8, ptr %0, i64 24
  %22 = load double, ptr %21, align 8
  %23 = fcmp ogt double %20, %22
  br i1 %23, label %24, label %25

24:                                               ; preds = %18
  store double %22, ptr %19, align 8
  br label %25

25:                                               ; preds = %14, %24, %18, %2
  %.012 = phi ptr [ %1, %2 ], [ %.0, %18 ], [ %.0, %24 ], [ %.0, %14 ]
  call void @llvm.lifetime.end.p0(i64 144, ptr nonnull %3) #8
  ret ptr %.012
}